target datalayout = "e-m:e-p270:32:32-p271:32:32-p272:64:64-i64:64-i128:128-f80:128-n8:16:32:64-S128"
target triple = "x86_64-pc-linux-gnu"

%struct._zend_accel_globals = type { i8, i8, i8, i8, i8, %struct._zend_accel_directives, ptr, ptr, [32 x i8], [32 x i8], i32, i8, i32, i8, i32, i64, i64, %struct._zend_array, i64, ptr, ptr, ptr, ptr, %struct._zend_string, [32768 x i8] }
%struct._zend_accel_directives = type { i64, i64, double, ptr, i64, i8, i8, i8, i8, i8, i8, i8, i8, i8, i8, i8, i64, i64, ptr, ptr, i64, i64, i64, i64, i64, ptr, ptr, ptr, i8, i8, i8, ptr, ptr }
%struct._zend_array = type { %struct._zend_refcounted_h, %union.anon.0, i32, %union.anon.1, i32, i32, i32, i32, i64, ptr }
%struct._zend_refcounted_h = type { i32, %union.anon }
%union.anon = type { i32 }
%union.anon.0 = type { i32 }
%union.anon.1 = type { ptr }
%struct._zend_string = type { %struct._zend_refcounted_h, i64, i64, [1 x i8] }
%struct._zval_struct = type { %union._zend_value, %union.anon.3, %union.anon.6 }
%union._zend_value = type { i64 }
%union.anon.3 = type { i32 }
%union.anon.6 = type { i32 }

@accel_globals = external global %struct._zend_accel_globals, align 8

; Function Attrs: nounwind uwtable
define hidden ptr @zend_shared_memdup_get_put(ptr noundef %0, i64 noundef %1) #0 {
  %3 = alloca ptr, align 8
  %4 = alloca i64, align 8
  %5 = alloca ptr, align 8
  %6 = alloca %struct._zval_struct, align 8
  %7 = alloca ptr, align 8
  %8 = alloca ptr, align 8
  %9 = alloca ptr, align 8
  %10 = alloca i64, align 8
  %11 = alloca ptr, align 8
  %12 = alloca i64, align 8
  %13 = alloca i64, align 8
  %14 = alloca ptr, align 8
  %15 = alloca ptr, align 8
  %16 = alloca i64, align 8
  %17 = alloca i8, align 1
  %18 = alloca i8, align 1
  %19 = alloca i8, align 1
  %20 = alloca ptr, align 8
  %21 = alloca ptr, align 8
  %22 = alloca i64, align 8
  %23 = alloca ptr, align 8
  %24 = alloca i64, align 8
  store ptr %0, ptr %23, align 8
  store i64 %1, ptr %24, align 8
  %25 = load ptr, ptr %23, align 8
  %26 = load i64, ptr %24, align 8
  store ptr %25, ptr %15, align 8
  store i64 %26, ptr %16, align 8
  store i8 1, ptr %17, align 1
  store i8 1, ptr %18, align 1
  store i8 0, ptr %19, align 1
  %27 = load i8, ptr %17, align 1
  %28 = trunc i8 %27 to i1
  br i1 %28, label %29, label %57

29:                                               ; preds = %2
  %30 = load ptr, ptr %15, align 8
  %31 = ptrtoint ptr %30 to i64
  store i64 %31, ptr %22, align 8
  %32 = load i64, ptr %22, align 8
  store i64 %32, ptr %12, align 8
  %33 = load i64, ptr %12, align 8
  %34 = lshr i64 %33, 3
  %35 = load i64, ptr %12, align 8
  %36 = shl i64 %35, 61
  %37 = or i64 %34, %36
  store i64 %37, ptr %22, align 8
  %38 = load i64, ptr %22, align 8
  store ptr getelementptr inbounds (%struct._zend_accel_globals, ptr @accel_globals, i32 0, i32 17), ptr %9, align 8
  store i64 %38, ptr %10, align 8
  %39 = load ptr, ptr %9, align 8
  %40 = load i64, ptr %10, align 8
  %41 = call ptr @zend_hash_index_find(ptr noundef %39, i64 noundef %40) #10
  store ptr %41, ptr %11, align 8
  %42 = load ptr, ptr %11, align 8
  %43 = icmp ne ptr %42, null
  br i1 %43, label %44, label %50

44:                                               ; preds = %29
  %45 = load ptr, ptr %11, align 8
  %46 = load ptr, ptr %45, align 8
  %47 = icmp ne ptr %46, null
  call void @llvm.assume(i1 %47)
  %48 = load ptr, ptr %11, align 8
  %49 = load ptr, ptr %48, align 8
  store ptr %49, ptr %8, align 8
  br label %51

50:                                               ; preds = %29
  store ptr null, ptr %8, align 8
  br label %51

51:                                               ; preds = %50, %44
  %52 = load ptr, ptr %8, align 8
  store ptr %52, ptr %20, align 8
  %53 = icmp ne ptr %52, null
  br i1 %53, label %54, label %56

54:                                               ; preds = %51
  %55 = load ptr, ptr %20, align 8
  store ptr %55, ptr %14, align 8
  br label %101

56:                                               ; preds = %51
  br label %57

57:                                               ; preds = %56, %2
  %58 = load ptr, ptr getelementptr inbounds (%struct._zend_accel_globals, ptr @accel_globals, i32 0, i32 19), align 8
  store ptr %58, ptr %21, align 8
  %59 = load ptr, ptr getelementptr inbounds (%struct._zend_accel_globals, ptr @accel_globals, i32 0, i32 19), align 8
  %60 = load i64, ptr %16, align 8
  %61 = add i64 %60, 7
  %62 = and i64 %61, -8
  %63 = getelementptr inbounds i8, ptr %59, i64 %62
  store ptr %63, ptr getelementptr inbounds (%struct._zend_accel_globals, ptr @accel_globals, i32 0, i32 19), align 8
  %64 = load ptr, ptr %21, align 8
  %65 = load ptr, ptr %15, align 8
  %66 = load i64, ptr %16, align 8
  call void @llvm.memcpy.p0.p0.i64(ptr align 1 %64, ptr align 1 %65, i64 %66, i1 false)
  %67 = load i8, ptr %18, align 1
  %68 = trunc i8 %67 to i1
  br i1 %68, label %69, label %94

69:                                               ; preds = %57
  %70 = load i8, ptr %17, align 1
  %71 = trunc i8 %70 to i1
  br i1 %71, label %81, label %72

72:                                               ; preds = %69
  %73 = load ptr, ptr %15, align 8
  %74 = ptrtoint ptr %73 to i64
  store i64 %74, ptr %22, align 8
  %75 = load i64, ptr %22, align 8
  store i64 %75, ptr %13, align 8
  %76 = load i64, ptr %13, align 8
  %77 = lshr i64 %76, 3
  %78 = load i64, ptr %13, align 8
  %79 = shl i64 %78, 61
  %80 = or i64 %77, %79
  store i64 %80, ptr %22, align 8
  br label %81

81:                                               ; preds = %72, %69
  %82 = load i64, ptr %22, align 8
  %83 = load ptr, ptr %21, align 8
  store ptr getelementptr inbounds (%struct._zend_accel_globals, ptr @accel_globals, i32 0, i32 17), ptr %3, align 8
  store i64 %82, ptr %4, align 8
  store ptr %83, ptr %5, align 8
  %84 = load ptr, ptr %5, align 8
  store ptr %84, ptr %6, align 8
  %85 = getelementptr inbounds %struct._zval_struct, ptr %6, i32 0, i32 1
  store i32 13, ptr %85, align 8
  %86 = load ptr, ptr %3, align 8
  %87 = load i64, ptr %4, align 8
  %88 = call ptr @zend_hash_index_add_new(ptr noundef %86, i64 noundef %87, ptr noundef %6) #10
  store ptr %88, ptr %7, align 8
  %89 = load ptr, ptr %7, align 8
  %90 = icmp ne ptr %89, null
  br i1 %90, label %91, label %92

91:                                               ; preds = %81
  br label %93

92:                                               ; preds = %81
  br label %93

93:                                               ; preds = %92, %91
  br label %94

94:                                               ; preds = %93, %57
  %95 = load i8, ptr %19, align 1
  %96 = trunc i8 %95 to i1
  br i1 %96, label %97, label %99

97:                                               ; preds = %94
  %98 = load ptr, ptr %15, align 8
  call void @_efree(ptr noundef %98) #10
  br label %99

99:                                               ; preds = %97, %94
  %100 = load ptr, ptr %21, align 8
  store ptr %100, ptr %14, align 8
  br label %101

101:                                              ; preds = %99, %54
  %102 = load ptr, ptr %14, align 8
  ret ptr %102
}