; Function Attrs: nounwind uwtable
define hidden ptr @zend_shared_memdup_get_put(ptr noundef %0, i64 noundef %1) local_unnamed_addr #0 {
  %3 = alloca %struct._zval_struct, align 8
  %4 = ptrtoint ptr %0 to i64
  %5 = tail call i64 @llvm.fshl.i64(i64 %4, i64 %4, i64 61)
  %6 = tail call ptr @zend_hash_index_find(ptr noundef nonnull getelementptr inbounds (%struct._zend_accel_globals, ptr @accel_globals, i64 0, i32 17), i64 noundef %5) #20
  %.not = icmp eq ptr %6, null
  br i1 %.not, label %9, label %7

7:                                                ; preds = %2
  %8 = load ptr, ptr %6, align 8, !nonnull !4, !noundef !4
  br label %16

9:                                                ; preds = %2
  %10 = load ptr, ptr getelementptr inbounds (%struct._zend_accel_globals, ptr @accel_globals, i64 0, i32 19), align 8
  %11 = add i64 %1, 7
  %12 = and i64 %11, -8
  %13 = getelementptr inbounds i8, ptr %10, i64 %12
  store ptr %13, ptr getelementptr inbounds (%struct._zend_accel_globals, ptr @accel_globals, i64 0, i32 19), align 8
  tail call void @llvm.memcpy.p0.p0.i64(ptr align 1 %10, ptr align 1 %0, i64 %1, i1 false)
  store ptr %10, ptr %3, align 8
  %14 = getelementptr inbounds i8, ptr %3, i64 8
  store i32 13, ptr %14, align 8
  %15 = call ptr @zend_hash_index_add_new(ptr noundef nonnull getelementptr inbounds (%struct._zend_accel_globals, ptr @accel_globals, i64 0, i32 17), i64 noundef %5, ptr noundef nonnull %3) #20
  br label %16

16:                                               ; preds = %7, %9
  %.033 = phi ptr [ %10, %9 ], [ %8, %7 ]
  ret ptr %.033
}